target datalayout = "e-m:e-p270:32:32-p271:32:32-p272:64:64-i64:64-i128:128-f80:128-n8:16:32:64-S128"
target triple = "x86_64-pc-linux-gnu"

%class.QString = type { %struct.QArrayDataPointer }
%struct.QArrayDataPointer = type { ptr, ptr, i64 }
%class.RtpAnalysisDialog = type { %class.WiresharkDialog.base, ptr, i32, %class.QList.1, %class.QMultiHash, ptr, %class.QList.5, %class.QString, %class.QMenu, %class.QMenu }
%class.WiresharkDialog.base = type <{ %class.GeometryStateDialog, ptr, i8, [7 x i8], %class.QString, %class.QList, i32, i8 }>
%class.GeometryStateDialog = type { %class.QDialog, %class.QString }
%class.QDialog = type { %class.QWidget }
%class.QWidget = type { %class.QObject, %class.QPaintDevice.base, ptr }
%class.QObject = type { ptr, %class.QScopedPointer }
%class.QScopedPointer = type { ptr }
%class.QPaintDevice.base = type <{ ptr, i16 }>
%class.QList = type { %struct.QArrayDataPointer.0 }
%struct.QArrayDataPointer.0 = type { ptr, ptr, i64 }
%class.QList.1 = type { %struct.QArrayDataPointer.4 }
%struct.QArrayDataPointer.4 = type { ptr, ptr, i64 }
%class.QMultiHash = type { ptr, i64 }
%class.QList.5 = type { %struct.QArrayDataPointer.8 }
%struct.QArrayDataPointer.8 = type { ptr, ptr, i64 }
%class.QMenu = type { %class.QWidget }
%class.Ui_RtpAnalysisDialog = type { ptr, ptr, ptr, ptr, ptr, ptr, ptr, ptr, ptr, ptr, ptr, ptr, ptr, ptr, ptr, ptr, ptr, ptr, ptr, ptr, ptr, ptr, ptr, ptr }
%class.QPoint = type { i32, i32 }
%class.QVariant = type { %"struct.QVariant::Private" }
%"struct.QVariant::Private" = type { %union.anon, i64 }
%union.anon = type { ptr, [16 x i8] }
%struct.tab_info_t = type { %struct._rtpstream_info, ptr, ptr, ptr, ptr, ptr, ptr, ptr, ptr, ptr, ptr, ptr, ptr, ptr, ptr, ptr }
%struct._rtpstream_info = type { %struct._rtpstream_id, i8, ptr, [256 x ptr], ptr, i32, i32, i32, i32, i32, i32, ptr, ptr, %struct.nstime_t, %struct.nstime_t, %struct.nstime_t, i16, i32, i32, %struct._tap_rtp_stat_t, i32, ptr }
%struct._rtpstream_id = type { %struct._address, i16, %struct._address, i16, i32 }
%struct._address = type { i32, i32, ptr, ptr }
%struct.nstime_t = type { i64, i32 }
%struct._tap_rtp_stat_t = type { i32, i32, i16, i64, i64, double, [300 x %struct._bw_history_item], i16, i16, i32, i32, double, double, double, double, double, double, double, double, double, double, double, double, double, double, double, double, double, double, double, i32, i16, i16, i32, i32, i32, i32, i16, i32, i32, i32 }
%struct._bw_history_item = type { double, i32 }
%class.WiresharkDialog = type <{ %class.GeometryStateDialog, ptr, i8, [7 x i8], %class.QString, %class.QList, i32, i8, [3 x i8] }>
%class.QObjectData = type { ptr, ptr, ptr, %class.QList.150, i32, i32, ptr, %class.QBindingStorage }
%class.QList.150 = type { %struct.QArrayDataPointer.153 }
%struct.QArrayDataPointer.153 = type { ptr, ptr, i64 }
%class.QBindingStorage = type { ptr, ptr }

@.str.20 = private unnamed_addr constant [9 x i8] c"tab_data\00", align 1

; Function Attrs: mustprogress nounwind uwtable
define linkonce_odr noundef ptr @_ZNK14QScopedPointerI11QObjectData21QScopedPointerDeleterIS0_EEptEv(ptr noundef nonnull align 8 dereferenceable(8) %0) #5 comdat align 2 {
  %2 = alloca ptr, align 8
  store ptr %0, ptr %2, align 8
  %3 = load ptr, ptr %2, align 8
  %4 = getelementptr inbounds %class.QScopedPointer, ptr %3, i32 0, i32 0
  %5 = load ptr, ptr %4, align 8
  ret ptr %5
}

; Function Attrs: mustprogress nounwind uwtable
define linkonce_odr noundef zeroext i1 @_ZNK7QObject12isWidgetTypeEv(ptr noundef nonnull align 8 dereferenceable(16) %0) #5 comdat align 2 {
  %2 = alloca ptr, align 8
  store ptr %0, ptr %2, align 8
  %3 = load ptr, ptr %2, align 8
  %4 = getelementptr inbounds %class.QObject, ptr %3, i32 0, i32 1
  %5 = call noundef ptr @_ZNK14QScopedPointerI11QObjectData21QScopedPointerDeleterIS0_EEptEv(ptr noundef nonnull align 8 dereferenceable(8) %4) #18
  %6 = getelementptr inbounds %class.QObjectData, ptr %5, i32 0, i32 4
  %7 = load i32, ptr %6, align 8
  %8 = and i32 %7, 1
  %9 = icmp ne i32 %8, 0
  ret i1 %9
}

; Function Attrs: mustprogress uwtable
define linkonce_odr noundef ptr @_ZNK8QVariant5valueIPvEET_v(ptr noundef nonnull align 8 dereferenceable(32) %0) #0 comdat align 2 {
  %2 = alloca ptr, align 8
  store ptr %0, ptr %2, align 8
  %3 = load ptr, ptr %2, align 8
  %4 = call noundef ptr @_Z13qvariant_castIPvET_RK8QVariant(ptr noundef nonnull align 8 dereferenceable(32) %3)
  ret ptr %4
}

; Function Attrs: mustprogress uwtable
define linkonce_odr noundef ptr @_Z12qobject_castIP7QWidgetET_P7QObject(ptr noundef %0) #0 comdat {
  %2 = alloca ptr, align 8
  %3 = alloca ptr, align 8
  store ptr %0, ptr %3, align 8
  %4 = load ptr, ptr %3, align 8
  %5 = icmp ne ptr %4, null
  br i1 %5, label %6, label %9

6:                                                ; preds = %1
  %7 = load ptr, ptr %3, align 8
  %8 = call noundef zeroext i1 @_ZNK7QObject12isWidgetTypeEv(ptr noundef nonnull align 8 dereferenceable(16) %7)
  br i1 %8, label %10, label %9

9:                                                ; preds = %6, %1
  store ptr null, ptr %2, align 8
  br label %12

10:                                               ; preds = %6
  %11 = load ptr, ptr %3, align 8
  store ptr %11, ptr %2, align 8
  br label %12

12:                                               ; preds = %10, %9
  %13 = load ptr, ptr %2, align 8
  ret ptr %13
}

; Function Attrs: mustprogress uwtable
define noundef ptr @_ZN17RtpAnalysisDialog23getTabInfoForCurrentTabEv(ptr noundef nonnull align 8 dereferenceable(328) %0) #0 align 2 personality ptr @__gxx_personality_v0 {
  %2 = alloca ptr, align 8
  %3 = alloca ptr, align 8
  %4 = alloca ptr, align 8
  %5 = alloca ptr, align 8
  %6 = alloca %class.QVariant, align 8
  %7 = alloca ptr, align 8
  %8 = alloca i32, align 4
  store ptr %0, ptr %3, align 8
  %9 = load ptr, ptr %3, align 8
  %10 = getelementptr inbounds %class.WiresharkDialog, ptr %9, i32 0, i32 2
  %11 = load i8, ptr %10, align 8
  %12 = trunc i8 %11 to i1
  br i1 %12, label %13, label %14

13:                                               ; preds = %1
  store ptr null, ptr %2, align 8
  br label %33

14:                                               ; preds = %1
  %15 = getelementptr inbounds %class.RtpAnalysisDialog, ptr %9, i32 0, i32 1
  %16 = load ptr, ptr %15, align 8
  %17 = getelementptr inbounds %class.Ui_RtpAnalysisDialog, ptr %16, i32 0, i32 13
  %18 = load ptr, ptr %17, align 8
  %19 = call noundef ptr @_ZNK10QTabWidget13currentWidgetEv(ptr noundef nonnull align 8 dereferenceable(40) %18)
  %20 = call noundef ptr @_Z12qobject_castIP7QWidgetET_P7QObject(ptr noundef %19)
  store ptr %20, ptr %5, align 8
  %21 = load ptr, ptr %5, align 8
  %22 = icmp ne ptr %21, null
  br i1 %22, label %24, label %23

23:                                               ; preds = %14
  store ptr null, ptr %2, align 8
  br label %33

24:                                               ; preds = %14
  %25 = load ptr, ptr %5, align 8
  call void @_ZNK7QObject8propertyEPKc(ptr dead_on_unwind writable sret(%class.QVariant) align 8 %6, ptr noundef nonnull align 8 dereferenceable(16) %25, ptr noundef @.str.20)
  %26 = invoke noundef ptr @_ZNK8QVariant5valueIPvEET_v(ptr noundef nonnull align 8 dereferenceable(32) %6)
          to label %27 unwind label %29

27:                                               ; preds = %24
  store ptr %26, ptr %4, align 8
  call void @_ZN8QVariantD1Ev(ptr noundef nonnull align 8 dereferenceable(32) %6) #18
  %28 = load ptr, ptr %4, align 8
  store ptr %28, ptr %2, align 8
  br label %33

29:                                               ; preds = %24
  %30 = landingpad { ptr, i32 }
          cleanup
  %31 = extractvalue { ptr, i32 } %30, 0
  store ptr %31, ptr %7, align 8
  %32 = extractvalue { ptr, i32 } %30, 1
  store i32 %32, ptr %8, align 4
  call void @_ZN8QVariantD1Ev(ptr noundef nonnull align 8 dereferenceable(32) %6) #18
  br label %35

33:                                               ; preds = %27, %23, %13
  %34 = load ptr, ptr %2, align 8
  ret ptr %34

35:                                               ; preds = %29
  %36 = load ptr, ptr %7, align 8
  %37 = load i32, ptr %8, align 4
  %38 = insertvalue { ptr, i32 } poison, ptr %36, 0
  %39 = insertvalue { ptr, i32 } %38, i32 %37, 1
  resume { ptr, i32 } %39
}

; Function Attrs: mustprogress uwtable
define void @_ZN17RtpAnalysisDialog14showStreamMenuE6QPoint(ptr noundef nonnull align 8 dereferenceable(328) %0, i64 %1) #0 align 2 {
  %3 = alloca %class.QPoint, align 4
  %4 = alloca ptr, align 8
  %5 = alloca ptr, align 8
  %6 = alloca ptr, align 8
  %7 = alloca %class.QPoint, align 4
  store i64 %1, ptr %3, align 4
  store ptr %0, ptr %4, align 8
  %8 = load ptr, ptr %4, align 8
  %9 = call noundef ptr @_ZN17RtpAnalysisDialog23getTabInfoForCurrentTabEv(ptr noundef nonnull align 8 dereferenceable(328) %8)
  store ptr %9, ptr %5, align 8
  %10 = load ptr, ptr %5, align 8
  %11 = icmp ne ptr %10, null
  br i1 %11, label %13, label %12

12:                                               ; preds = %2
  br label %28

13:                                               ; preds = %2
  %14 = load ptr, ptr %5, align 8
  %15 = getelementptr inbounds %struct.tab_info_t, ptr %14, i32 0, i32 5
  %16 = load ptr, ptr %15, align 8
  store ptr %16, ptr %6, align 8
  %17 = load ptr, ptr %6, align 8
  %18 = icmp ne ptr %17, null
  br i1 %18, label %20, label %19

19:                                               ; preds = %13
  br label %28

20:                                               ; preds = %13
  %21 = load ptr, ptr %8, align 8
  %22 = getelementptr inbounds ptr, ptr %21, i64 58
  %23 = load ptr, ptr %22, align 8
  call void %23(ptr noundef nonnull align 8 dereferenceable(328) %8)
  %24 = getelementptr inbounds %class.RtpAnalysisDialog, ptr %8, i32 0, i32 8
  %25 = load ptr, ptr %6, align 8
  %26 = call noundef ptr @_ZNK19QAbstractScrollArea8viewportEv(ptr noundef nonnull align 8 dereferenceable(40) %25)
  %27 = call i64 @_ZNK7QWidget11mapToGlobalERK6QPoint(ptr noundef nonnull align 8 dereferenceable(40) %26, ptr noundef nonnull align 4 dereferenceable(8) %3)
  store i64 %27, ptr %7, align 4
  call void @_ZN5QMenu5popupERK6QPointP7QAction(ptr noundef nonnull align 8 dereferenceable(40) %24, ptr noundef nonnull align 4 dereferenceable(8) %7, ptr noundef null)
  br label %28

28:                                               ; preds = %20, %19, %12
  ret void
}