; Function Attrs: mustprogress uwtable
define void @_ZN17RtpAnalysisDialog14showStreamMenuE6QPoint(ptr noundef nonnull align 8 dereferenceable(328) %0, i64 %1) local_unnamed_addr #0 align 2 personality ptr @__gxx_personality_v0 {
  %3 = alloca %class.QVariant, align 8
  %4 = alloca %class.QPoint, align 8
  %5 = alloca %class.QPoint, align 8
  store i64 %1, ptr %4, align 8
  call void @llvm.lifetime.start.p0(i64 32, ptr nonnull %3)
  %6 = getelementptr inbounds i8, ptr %0, i64 72
  %7 = load i8, ptr %6, align 8
  %8 = and i8 %7, 1
  %.not.i = icmp eq i8 %8, 0
  br i1 %.not.i, label %9, label %_ZN17RtpAnalysisDialog23getTabInfoForCurrentTabEv.exit.thread

9:                                                ; preds = %2
  %10 = getelementptr inbounds i8, ptr %0, i64 136
  %11 = load ptr, ptr %10, align 8
  %12 = getelementptr inbounds i8, ptr %11, i64 104
  %13 = load ptr, ptr %12, align 8
  %14 = tail call noundef ptr @_ZNK10QTabWidget13currentWidgetEv(ptr noundef nonnull align 8 dereferenceable(40) %13)
  %.not.i.i = icmp eq ptr %14, null
  br i1 %.not.i.i, label %_ZN17RtpAnalysisDialog23getTabInfoForCurrentTabEv.exit.thread, label %15

15:                                               ; preds = %9
  %16 = getelementptr inbounds i8, ptr %14, i64 8
  %17 = load ptr, ptr %16, align 8
  %18 = getelementptr inbounds i8, ptr %17, i64 48
  %19 = load i32, ptr %18, align 8
  %20 = and i32 %19, 1
  %.not5.i.i = icmp eq i32 %20, 0
  br i1 %.not5.i.i, label %_ZN17RtpAnalysisDialog23getTabInfoForCurrentTabEv.exit.thread, label %_Z12qobject_castIP7QWidgetET_P7QObject.exit.i

_Z12qobject_castIP7QWidgetET_P7QObject.exit.i:    ; preds = %15
  call void @_ZNK7QObject8propertyEPKc(ptr dead_on_unwind nonnull writable sret(%class.QVariant) align 8 %3, ptr noundef nonnull align 8 dereferenceable(16) %14, ptr noundef nonnull @.str.20)
  %21 = invoke noundef ptr @_Z13qvariant_castIPvET_RK8QVariant(ptr noundef nonnull align 8 dereferenceable(32) %3)
          to label %_ZN17RtpAnalysisDialog23getTabInfoForCurrentTabEv.exit unwind label %22

22:                                               ; preds = %_Z12qobject_castIP7QWidgetET_P7QObject.exit.i
  %23 = landingpad { ptr, i32 }
          cleanup
  call void @_ZN8QVariantD1Ev(ptr noundef nonnull align 8 dereferenceable(32) %3) #19
  resume { ptr, i32 } %23

_ZN17RtpAnalysisDialog23getTabInfoForCurrentTabEv.exit.thread: ; preds = %2, %9, %15
  call void @llvm.lifetime.end.p0(i64 32, ptr nonnull %3)
  br label %34

_ZN17RtpAnalysisDialog23getTabInfoForCurrentTabEv.exit: ; preds = %_Z12qobject_castIP7QWidgetET_P7QObject.exit.i
  call void @_ZN8QVariantD1Ev(ptr noundef nonnull align 8 dereferenceable(32) %3) #19
  call void @llvm.lifetime.end.p0(i64 32, ptr nonnull %3)
  %.not = icmp eq ptr %21, null
  br i1 %.not, label %34, label %24

24:                                               ; preds = %_ZN17RtpAnalysisDialog23getTabInfoForCurrentTabEv.exit
  %25 = getelementptr inbounds i8, ptr %21, i64 7336
  %26 = load ptr, ptr %25, align 8
  %.not6 = icmp eq ptr %26, null
  br i1 %.not6, label %34, label %27

27:                                               ; preds = %24
  %28 = load ptr, ptr %0, align 8
  %29 = getelementptr inbounds i8, ptr %28, i64 464
  %30 = load ptr, ptr %29, align 8
  call void %30(ptr noundef nonnull align 8 dereferenceable(328) %0)
  %31 = getelementptr inbounds i8, ptr %0, i64 248
  %32 = call noundef ptr @_ZNK19QAbstractScrollArea8viewportEv(ptr noundef nonnull align 8 dereferenceable(40) %26)
  %33 = call i64 @_ZNK7QWidget11mapToGlobalERK6QPoint(ptr noundef nonnull align 8 dereferenceable(40) %32, ptr noundef nonnull align 4 dereferenceable(8) %4)
  store i64 %33, ptr %5, align 8
  call void @_ZN5QMenu5popupERK6QPointP7QAction(ptr noundef nonnull align 8 dereferenceable(40) %31, ptr noundef nonnull align 4 dereferenceable(8) %5, ptr noundef null)
  br label %34

34:                                               ; preds = %_ZN17RtpAnalysisDialog23getTabInfoForCurrentTabEv.exit.thread, %24, %_ZN17RtpAnalysisDialog23getTabInfoForCurrentTabEv.exit, %27
  ret void
}